target datalayout = "e-m:e-p270:32:32-p271:32:32-p272:64:64-i64:64-i128:128-f80:128-n8:16:32:64-S128"
target triple = "x86_64-pc-linux-gnu"

@lib_code = internal global i32 0, align 4
@.str.5 = private unnamed_addr constant [33 x i8] c"../openssl/engines/e_afalg_err.c\00", align 1
@__func__.ERR_AFALG_error = private unnamed_addr constant [16 x i8] c"ERR_AFALG_error\00", align 1

; Function Attrs: nounwind uwtable
define internal void @ERR_AFALG_error(i32 noundef %0, i32 noundef %1, ptr noundef %2, i32 noundef %3) #0 {
  %5 = alloca i32, align 4
  %6 = alloca i32, align 4
  %7 = alloca ptr, align 8
  %8 = alloca i32, align 4
  store i32 %0, ptr %5, align 4, !tbaa !20
  store i32 %1, ptr %6, align 4, !tbaa !20
  store ptr %2, ptr %7, align 8, !tbaa !10
  store i32 %3, ptr %8, align 4, !tbaa !20
  %9 = load i32, ptr @lib_code, align 4, !tbaa !20
  %10 = icmp eq i32 %9, 0
  br i1 %10, label %11, label %13

11:                                               ; preds = %4
  %12 = call i32 @ERR_get_next_error_library()
  store i32 %12, ptr @lib_code, align 4, !tbaa !20
  br label %13

13:                                               ; preds = %11, %4
  call void @ERR_new()
  call void @ERR_set_debug(ptr noundef @.str.5, i32 noundef 70, ptr noundef @__func__.ERR_AFALG_error)
  %14 = load i32, ptr @lib_code, align 4, !tbaa !20
  %15 = load i32, ptr %6, align 4, !tbaa !20
  call void (i32, i32, ptr, ...) @ERR_set_error(i32 noundef %14, i32 noundef %15, ptr noundef null)
  %16 = load ptr, ptr %7, align 8, !tbaa !10
  %17 = load i32, ptr %8, align 4, !tbaa !20
  call void @ERR_set_debug(ptr noundef %16, i32 noundef %17, ptr noundef null)
  ret void
}