; Function Attrs: nounwind uwtable
define internal fastcc void @ERR_AFALG_error(i32 noundef range(i32 100, 113) %0, i32 noundef range(i32 211, 884) %1) unnamed_addr #1 {
  %3 = load i32, ptr @lib_code, align 4, !tbaa !12
  %4 = icmp eq i32 %3, 0
  br i1 %4, label %5, label %7

5:                                                ; preds = %2
  %6 = tail call i32 @ERR_get_next_error_library() #13
  store i32 %6, ptr @lib_code, align 4, !tbaa !12
  br label %7

7:                                                ; preds = %5, %2
  tail call void @ERR_new() #13
  tail call void @ERR_set_debug(ptr noundef nonnull @.str.5, i32 noundef 70, ptr noundef nonnull @__func__.ERR_AFALG_error) #13
  %8 = load i32, ptr @lib_code, align 4, !tbaa !12
  tail call void (i32, i32, ptr, ...) @ERR_set_error(i32 noundef %8, i32 noundef %0, ptr noundef null) #13
  tail call void @ERR_set_debug(ptr noundef nonnull @.str.1, i32 noundef %1, ptr noundef null) #13
  ret void
}